target datalayout = "e-m:e-p270:32:32-p271:32:32-p272:64:64-i64:64-i128:128-f80:128-n8:16:32:64-S128"
target triple = "x86_64-pc-linux-gnu"

%"class.icu_77::Package" = type <{ [64 x i8], [64 x i8], ptr, [1024 x i8], i32, i32, i8, i8, i8, i8, i32, i32, [4 x i8], ptr, i32, i32, [100000 x i8], [100000 x i8], i32, [4 x i8], ptr, ptr, i32, i32, i32, i8, [3 x i8] }>

@stderr = external global ptr, align 8
@.str.33 = private unnamed_addr constant [33 x i8] c"icupkg: string storage overflow\0A\00", align 1

; Function Attrs: mustprogress nounwind uwtable
define noundef ptr @_ZN6icu_777Package11allocStringEai(ptr noundef nonnull align 8 dereferenceable(201237) %0, i8 noundef signext %1, i32 noundef %2) #3 align 2 {
  %4 = alloca ptr, align 8
  %5 = alloca i8, align 1
  %6 = alloca i32, align 4
  %7 = alloca ptr, align 8
  %8 = alloca i32, align 4
  store ptr %0, ptr %4, align 8, !tbaa !26
  store i8 %1, ptr %5, align 1, !tbaa !32
  store i32 %2, ptr %6, align 4, !tbaa !8
  %9 = load ptr, ptr %4, align 8
  call void @llvm.lifetime.start.p0(i64 8, ptr %7) #13
  call void @llvm.lifetime.start.p0(i64 4, ptr %8) #13
  %10 = load i8, ptr %5, align 1, !tbaa !32
  %11 = icmp ne i8 %10, 0
  br i1 %11, label %12, label %20

12:                                               ; preds = %3
  %13 = getelementptr inbounds nuw %"class.icu_77::Package", ptr %9, i32 0, i32 14
  %14 = load i32, ptr %13, align 8, !tbaa !41
  store i32 %14, ptr %8, align 4, !tbaa !8
  %15 = getelementptr inbounds nuw %"class.icu_77::Package", ptr %9, i32 0, i32 16
  %16 = getelementptr inbounds [100000 x i8], ptr %15, i64 0, i64 0
  %17 = load i32, ptr %8, align 4, !tbaa !8
  %18 = sext i32 %17 to i64
  %19 = getelementptr inbounds i8, ptr %16, i64 %18
  store ptr %19, ptr %7, align 8, !tbaa !3
  br label %28

20:                                               ; preds = %3
  %21 = getelementptr inbounds nuw %"class.icu_77::Package", ptr %9, i32 0, i32 15
  %22 = load i32, ptr %21, align 4, !tbaa !40
  store i32 %22, ptr %8, align 4, !tbaa !8
  %23 = getelementptr inbounds nuw %"class.icu_77::Package", ptr %9, i32 0, i32 17
  %24 = getelementptr inbounds [100000 x i8], ptr %23, i64 0, i64 0
  %25 = load i32, ptr %8, align 4, !tbaa !8
  %26 = sext i32 %25 to i64
  %27 = getelementptr inbounds i8, ptr %24, i64 %26
  store ptr %27, ptr %7, align 8, !tbaa !3
  br label %28

28:                                               ; preds = %20, %12
  %29 = load i32, ptr %6, align 4, !tbaa !8
  %30 = add nsw i32 %29, 1
  %31 = load i32, ptr %8, align 4, !tbaa !8
  %32 = add nsw i32 %31, %30
  store i32 %32, ptr %8, align 4, !tbaa !8
  %33 = load i32, ptr %8, align 4, !tbaa !8
  %34 = icmp sgt i32 %33, 100000
  br i1 %34, label %35, label %38

35:                                               ; preds = %28
  %36 = load ptr, ptr @stderr, align 8, !tbaa !54
  %37 = call i32 (ptr, ptr, ...) @fprintf(ptr noundef %36, ptr noundef @.str.33) #13
  call void @exit(i32 noundef 15) #14
  unreachable

38:                                               ; preds = %28
  %39 = load i8, ptr %5, align 1, !tbaa !32
  %40 = icmp ne i8 %39, 0
  br i1 %40, label %41, label %44

41:                                               ; preds = %38
  %42 = load i32, ptr %8, align 4, !tbaa !8
  %43 = getelementptr inbounds nuw %"class.icu_77::Package", ptr %9, i32 0, i32 14
  store i32 %42, ptr %43, align 8, !tbaa !41
  br label %47

44:                                               ; preds = %38
  %45 = load i32, ptr %8, align 4, !tbaa !8
  %46 = getelementptr inbounds nuw %"class.icu_77::Package", ptr %9, i32 0, i32 15
  store i32 %45, ptr %46, align 4, !tbaa !40
  br label %47

47:                                               ; preds = %44, %41
  %48 = load ptr, ptr %7, align 8, !tbaa !3
  call void @llvm.lifetime.end.p0(i64 4, ptr %8) #13
  call void @llvm.lifetime.end.p0(i64 8, ptr %7) #13
  ret ptr %48
}