; Function Attrs: mustprogress nofree nounwind uwtable
define noundef nonnull ptr @_ZN6icu_777Package11allocStringEai(ptr noundef nonnull align 8 dereferenceable(201237) %0, i8 noundef signext %1, i32 noundef %2) local_unnamed_addr #8 align 2 {
  %.not = icmp eq i8 %1, 0
  %4 = getelementptr inbounds nuw i8, ptr %0, i64 1192
  %5 = load i32, ptr %4, align 8
  %6 = getelementptr inbounds nuw i8, ptr %0, i64 1200
  %7 = sext i32 %5 to i64
  %8 = getelementptr inbounds i8, ptr %6, i64 %7
  %9 = getelementptr inbounds nuw i8, ptr %0, i64 1196
  %10 = load i32, ptr %9, align 4
  %11 = getelementptr inbounds nuw i8, ptr %0, i64 101200
  %12 = sext i32 %10 to i64
  %13 = getelementptr inbounds i8, ptr %11, i64 %12
  %.0 = select i1 %.not, i32 %10, i32 %5
  %14 = add nsw i32 %2, 1
  %15 = add nsw i32 %14, %.0
  %16 = icmp sgt i32 %15, 100000
  br i1 %16, label %17, label %20

17:                                               ; preds = %3
  %18 = load ptr, ptr @stderr, align 8, !tbaa !36
  %19 = tail call i64 @fwrite(ptr nonnull @.str.33, i64 32, i64 1, ptr %18) #28
  tail call void @exit(i32 noundef 15) #26
  unreachable

20:                                               ; preds = %3
  br i1 %.not, label %22, label %21

21:                                               ; preds = %20
  store i32 %15, ptr %4, align 8, !tbaa !50
  br label %23

22:                                               ; preds = %20
  store i32 %15, ptr %9, align 4, !tbaa !62
  br label %23

23:                                               ; preds = %22, %21
  %.010 = phi ptr [ %13, %22 ], [ %8, %21 ]
  ret ptr %.010
}